; Function Attrs: mustprogress uwtable
define noundef i32 @_ZN8proxygen11HTTP1xCodec17onChunkCompleteCBEPNS_11http_parserE(ptr nocapture noundef readonly %parser) #3 align 2 personality ptr @__gxx_personality_v0 {
entry:
  %data = getelementptr inbounds i8, ptr %parser, i64 24
  %0 = load ptr, ptr %data, align 8
  %inRecvLastChunk_.i = getelementptr inbounds i8, ptr %0, i64 424
  %bf.load.i = load i32, ptr %inRecvLastChunk_.i, align 8
  %1 = and i32 %bf.load.i, 262144
  %bf.cast.not.i = icmp eq i32 %1, 0
  br i1 %bf.cast.not.i, label %if.else.i, label %if.then.i

if.then.i:                                        ; preds = %entry
  %bf.clear4.i = and i32 %bf.load.i, -262145
  store i32 %bf.clear4.i, ptr %inRecvLastChunk_.i, align 8
  br label %return

if.else.i:                                        ; preds = %entry
  %callback_.i = getelementptr inbounds i8, ptr %0, i64 40
  %2 = load ptr, ptr %callback_.i, align 8
  %ingressTxnID_.i = getelementptr inbounds i8, ptr %0, i64 48
  %3 = load i64, ptr %ingressTxnID_.i, align 8
  %vtable.i = load ptr, ptr %2, align 8
  %vfn.i = getelementptr inbounds i8, ptr %vtable.i, i64 48
  %4 = load ptr, ptr %vfn.i, align 8
  invoke void %4(ptr noundef nonnull align 8 dereferenceable(8) %2, i64 noundef %3)
          to label %return unwind label %lpad23

lpad23:                                           ; preds = %if.else.i
  %5 = landingpad { ptr, i32 }
          catch ptr @_ZTISt9exception
  %6 = extractvalue { ptr, i32 } %5, 1
  %7 = tail call i32 @llvm.eh.typeid.for(ptr nonnull @_ZTISt9exception) #25
  %matches = icmp eq i32 %6, %7
  br i1 %matches, label %catch, label %eh.resume

catch:                                            ; preds = %lpad23
  %8 = extractvalue { ptr, i32 } %5, 0
  %9 = tail call ptr @__cxa_begin_catch(ptr %8) #25
  %vtable = load ptr, ptr %9, align 8
  %vfn = getelementptr inbounds i8, ptr %vtable, i64 16
  %10 = load ptr, ptr %vfn, align 8
  %call26 = tail call noundef ptr %10(ptr noundef nonnull align 8 dereferenceable(8) %9) #25
  invoke void @_ZN8proxygen11HTTP1xCodec13onParserErrorEPKc(ptr noundef nonnull align 8 dereferenceable(428) %0, ptr noundef %call26)
          to label %invoke.cont28 unwind label %lpad27

invoke.cont28:                                    ; preds = %catch
  tail call void @__cxa_end_catch()
  br label %return

lpad27:                                           ; preds = %catch
  %11 = landingpad { ptr, i32 }
          cleanup
  invoke void @__cxa_end_catch()
          to label %eh.resume unwind label %terminate.lpad

return:                                           ; preds = %if.then.i, %if.else.i, %invoke.cont28
  %retval.0 = phi i32 [ 1, %invoke.cont28 ], [ 0, %if.else.i ], [ 0, %if.then.i ]
  ret i32 %retval.0

eh.resume:                                        ; preds = %lpad27, %lpad23
  %lpad.val32.merged = phi { ptr, i32 } [ %11, %lpad27 ], [ %5, %lpad23 ]
  resume { ptr, i32 } %lpad.val32.merged

terminate.lpad:                                   ; preds = %lpad27
  %12 = landingpad { ptr, i32 }
          catch ptr null
  %13 = extractvalue { ptr, i32 } %12, 0
  tail call void @__clang_call_terminate(ptr %13) #26
  unreachable
}